; Function Attrs: nounwind uwtable
define dso_local i32 @cbuf_move(ptr noundef %0, ptr noundef %1, i32 noundef %2, ptr noundef captures(address_is_null) %3) local_unnamed_addr #0 {
  %.not = icmp eq ptr %3, null
  br i1 %.not, label %6, label %5

5:                                                ; preds = %4
  store i32 0, ptr %3, align 4
  br label %6

6:                                                ; preds = %5, %4
  %7 = icmp eq ptr %0, %1
  %8 = icmp slt i32 %2, -1
  %or.cond = or i1 %7, %8
  br i1 %or.cond, label %.sink.split, label %9

9:                                                ; preds = %6
  %10 = icmp eq i32 %2, 0
  br i1 %10, label %59, label %11

11:                                               ; preds = %9
  %12 = icmp ult ptr %0, %1
  br i1 %12, label %13, label %21

13:                                               ; preds = %11
  %14 = tail call i32 @pthread_mutex_lock(ptr noundef %0) #15
  %.not52 = icmp eq i32 %14, 0
  br i1 %.not52, label %17, label %15

15:                                               ; preds = %13
  %16 = tail call ptr @__errno_location() #14
  store i32 %14, ptr %16, align 4
  tail call void (ptr, ...) @fatal_abort(ptr noundef nonnull @.str.2, ptr noundef nonnull @__func__.cbuf_move) #16
  unreachable

17:                                               ; preds = %13
  %18 = tail call i32 @pthread_mutex_lock(ptr noundef nonnull %1) #15
  %.not53 = icmp eq i32 %18, 0
  br i1 %.not53, label %29, label %19

19:                                               ; preds = %17
  %20 = tail call ptr @__errno_location() #14
  store i32 %18, ptr %20, align 4
  tail call void (ptr, ...) @fatal_abort(ptr noundef nonnull @.str.2, ptr noundef nonnull @__func__.cbuf_move) #16
  unreachable

21:                                               ; preds = %11
  %22 = tail call i32 @pthread_mutex_lock(ptr noundef %1) #15
  %.not50 = icmp eq i32 %22, 0
  br i1 %.not50, label %25, label %23

23:                                               ; preds = %21
  %24 = tail call ptr @__errno_location() #14
  store i32 %22, ptr %24, align 4
  tail call void (ptr, ...) @fatal_abort(ptr noundef nonnull @.str.2, ptr noundef nonnull @__func__.cbuf_move) #16
  unreachable

25:                                               ; preds = %21
  %26 = tail call i32 @pthread_mutex_lock(ptr noundef %0) #15
  %.not51 = icmp eq i32 %26, 0
  br i1 %.not51, label %29, label %27

27:                                               ; preds = %25
  %28 = tail call ptr @__errno_location() #14
  store i32 %26, ptr %28, align 4
  tail call void (ptr, ...) @fatal_abort(ptr noundef nonnull @.str.2, ptr noundef nonnull @__func__.cbuf_move) #16
  unreachable

29:                                               ; preds = %25, %17
  %30 = icmp eq i32 %2, -1
  br i1 %30, label %31, label %34

31:                                               ; preds = %29
  %32 = getelementptr inbounds nuw i8, ptr %0, i64 56
  %33 = load i32, ptr %32, align 8
  br label %34

34:                                               ; preds = %31, %29
  %.037 = phi i32 [ %33, %31 ], [ %2, %29 ]
  %35 = icmp sgt i32 %.037, 0
  br i1 %35, label %36, label %50

36:                                               ; preds = %34
  %37 = tail call fastcc i32 @cbuf_copier(ptr noundef %0, ptr noundef %1, i32 noundef %.037, ptr noundef %3)
  %38 = icmp sgt i32 %37, 0
  br i1 %38, label %39, label %50

39:                                               ; preds = %36
  %40 = getelementptr inbounds nuw i8, ptr %0, i64 56
  %41 = load i32, ptr %40, align 8
  %42 = sub nsw i32 %41, %37
  store i32 %42, ptr %40, align 8
  %43 = getelementptr inbounds nuw i8, ptr %0, i64 72
  %44 = load i32, ptr %43, align 8
  %45 = add nsw i32 %44, %37
  %46 = getelementptr inbounds nuw i8, ptr %0, i64 52
  %47 = load i32, ptr %46, align 4
  %48 = add nsw i32 %47, 1
  %49 = srem i32 %45, %48
  store i32 %49, ptr %43, align 8
  br label %50

50:                                               ; preds = %34, %39, %36
  %.038 = phi i32 [ %37, %39 ], [ %37, %36 ], [ 0, %34 ]
  %51 = tail call i32 @pthread_mutex_unlock(ptr noundef %0) #15
  %.not54 = icmp eq i32 %51, 0
  br i1 %.not54, label %54, label %52

52:                                               ; preds = %50
  %53 = tail call ptr @__errno_location() #14
  store i32 %51, ptr %53, align 4
  tail call void (ptr, ...) @fatal_abort(ptr noundef nonnull @.str.3, ptr noundef nonnull @__func__.cbuf_move) #16
  unreachable

54:                                               ; preds = %50
  %55 = tail call i32 @pthread_mutex_unlock(ptr noundef %1) #15
  %.not55 = icmp eq i32 %55, 0
  br i1 %.not55, label %59, label %56

56:                                               ; preds = %54
  %57 = tail call ptr @__errno_location() #14
  store i32 %55, ptr %57, align 4
  tail call void (ptr, ...) @fatal_abort(ptr noundef nonnull @.str.3, ptr noundef nonnull @__func__.cbuf_move) #16
  unreachable

.sink.split:                                      ; preds = %6
  %58 = tail call ptr @__errno_location() #14
  store i32 22, ptr %58, align 4
  br label %59

59:                                               ; preds = %.sink.split, %54, %9
  %.0 = phi i32 [ 0, %9 ], [ %.038, %54 ], [ -1, %.sink.split ]
  ret i32 %.0
}